target datalayout = "e-m:e-p270:32:32-p271:32:32-p272:64:64-i64:64-i128:128-f80:128-n8:16:32:64-S128"
target triple = "x86_64-pc-linux-gnu"

%struct.tsd_s = type { i8, i8, i8, i64, i64, i64, i64, i64, i64, i64, i64, i64, i64, i64, i64, ptr, i64, i64, i64, ptr, ptr, %struct.ticker_geom_s, i8, %struct.tsd_binshards_s, %struct.tsd_link_t, i8, %struct.peak_s, %struct.activity_callback_thunk_s, %struct.tcache_slow_s, %struct.rtree_ctx_s, %struct.atomic_u8_t, i64, i64, i64, i64, %struct.tcache_s, %struct.witness_tsd_s }
%struct.ticker_geom_s = type { i32, i32 }
%struct.tsd_binshards_s = type { [36 x i8] }
%struct.tsd_link_t = type { ptr, ptr }
%struct.peak_s = type { i64, i64 }
%struct.activity_callback_thunk_s = type { ptr, ptr }
%struct.tcache_slow_s = type { %struct.anon.3, %struct.cache_bin_array_descriptor_s, ptr, i32, i32, [36 x i8], [36 x i8], [36 x i8], ptr, ptr }
%struct.anon.3 = type { ptr, ptr }
%struct.cache_bin_array_descriptor_s = type { %struct.anon.4, ptr }
%struct.anon.4 = type { ptr, ptr }
%struct.rtree_ctx_s = type { [16 x %struct.rtree_ctx_cache_elm_s], [8 x %struct.rtree_ctx_cache_elm_s] }
%struct.rtree_ctx_cache_elm_s = type { i64, ptr }
%struct.atomic_u8_t = type { i8 }
%struct.tcache_s = type { ptr, [73 x %struct.cache_bin_s] }
%struct.cache_bin_s = type { ptr, %struct.cache_bin_stats_s, i16, i16, i16, %struct.cache_bin_info_s }
%struct.cache_bin_stats_s = type { i64 }
%struct.cache_bin_info_s = type { i16 }
%struct.witness_tsd_s = type { %struct.witness_list_t, i8 }
%struct.witness_list_t = type { ptr }

; Function Attrs: alwaysinline nounwind uwtable
define internal ptr @tsd_activity_callback_thunkp_get_unsafe(ptr noundef %0) #2 {
  %2 = alloca ptr, align 8
  store ptr %0, ptr %2, align 8, !tbaa !3
  %3 = load ptr, ptr %2, align 8, !tbaa !3
  %4 = getelementptr inbounds nuw %struct.tsd_s, ptr %3, i32 0, i32 27
  ret ptr %4
}

; Function Attrs: alwaysinline nounwind uwtable
define internal zeroext i8 @tsd_state_get(ptr noundef %0) #2 {
  %2 = alloca ptr, align 8
  store ptr %0, ptr %2, align 8, !tbaa !3
  %3 = load ptr, ptr %2, align 8, !tbaa !3
  %4 = getelementptr inbounds nuw %struct.tsd_s, ptr %3, i32 0, i32 30
  %5 = load i8, ptr %4, align 8, !tbaa !52
  ret i8 %5
}

; Function Attrs: alwaysinline nounwind uwtable
define internal ptr @tsd_activity_callback_thunkp_get(ptr noundef %0) #2 {
  %2 = alloca ptr, align 8
  %3 = alloca i8, align 1
  store ptr %0, ptr %2, align 8, !tbaa !3
  call void @llvm.lifetime.start.p0(i64 1, ptr %3) #13
  %4 = load ptr, ptr %2, align 8, !tbaa !3
  %5 = call zeroext i8 @tsd_state_get(ptr noundef %4)
  store i8 %5, ptr %3, align 1, !tbaa !52
  br label %6

6:                                                ; preds = %1
  br label %7

7:                                                ; preds = %6
  br label %8

8:                                                ; preds = %7
  %9 = load ptr, ptr %2, align 8, !tbaa !3
  %10 = call ptr @tsd_activity_callback_thunkp_get_unsafe(ptr noundef %9)
  call void @llvm.lifetime.end.p0(i64 1, ptr %3) #13
  ret ptr %10
}

; Function Attrs: alwaysinline nounwind uwtable
define internal void @tsd_activity_callback_thunk_set(ptr noundef %0, ptr %1, ptr %2) #2 {
  %4 = alloca %struct.activity_callback_thunk_s, align 8
  %5 = alloca ptr, align 8
  %6 = getelementptr inbounds nuw { ptr, ptr }, ptr %4, i32 0, i32 0
  store ptr %1, ptr %6, align 8
  %7 = getelementptr inbounds nuw { ptr, ptr }, ptr %4, i32 0, i32 1
  store ptr %2, ptr %7, align 8
  store ptr %0, ptr %5, align 8, !tbaa !3
  br label %8

8:                                                ; preds = %3
  br label %9

9:                                                ; preds = %8
  %10 = load ptr, ptr %5, align 8, !tbaa !3
  %11 = call ptr @tsd_activity_callback_thunkp_get(ptr noundef %10)
  call void @llvm.memcpy.p0.p0.i64(ptr align 8 %11, ptr align 8 %4, i64 16, i1 false), !tbaa.struct !329
  ret void
}

; Function Attrs: alwaysinline nounwind uwtable
define internal { ptr, ptr } @tsd_activity_callback_thunk_get(ptr noundef %0) #2 {
  %2 = alloca %struct.activity_callback_thunk_s, align 8
  %3 = alloca ptr, align 8
  store ptr %0, ptr %3, align 8, !tbaa !3
  %4 = load ptr, ptr %3, align 8, !tbaa !3
  %5 = call ptr @tsd_activity_callback_thunkp_get(ptr noundef %4)
  call void @llvm.memcpy.p0.p0.i64(ptr align 8 %2, ptr align 8 %5, i64 16, i1 false), !tbaa.struct !329
  %6 = load { ptr, ptr }, ptr %2, align 8
  ret { ptr, ptr } %6
}

; Function Attrs: nounwind uwtable
define internal i32 @experimental_thread_activity_callback_ctl(ptr noundef %0, ptr noundef %1, i64 noundef %2, ptr noundef %3, ptr noundef %4, ptr noundef %5, i64 noundef %6) #0 {
  %8 = alloca i32, align 4
  %9 = alloca ptr, align 8
  %10 = alloca ptr, align 8
  %11 = alloca i64, align 8
  %12 = alloca ptr, align 8
  %13 = alloca ptr, align 8
  %14 = alloca ptr, align 8
  %15 = alloca i64, align 8
  %16 = alloca i32, align 4
  %17 = alloca %struct.activity_callback_thunk_s, align 8
  %18 = alloca i64, align 8
  %19 = alloca i32, align 4
  %20 = alloca %struct.activity_callback_thunk_s, align 8
  store ptr %0, ptr %9, align 8, !tbaa !3
  store ptr %1, ptr %10, align 8, !tbaa !11
  store i64 %2, ptr %11, align 8, !tbaa !13
  store ptr %3, ptr %12, align 8, !tbaa !10
  store ptr %4, ptr %13, align 8, !tbaa !11
  store ptr %5, ptr %14, align 8, !tbaa !10
  store i64 %6, ptr %15, align 8, !tbaa !13
  call void @llvm.lifetime.start.p0(i64 4, ptr %16) #13
  call void @llvm.lifetime.start.p0(i64 16, ptr %17) #13
  %21 = load ptr, ptr %9, align 8, !tbaa !3
  %22 = call { ptr, ptr } @tsd_activity_callback_thunk_get(ptr noundef %21)
  %23 = getelementptr inbounds nuw { ptr, ptr }, ptr %17, i32 0, i32 0
  %24 = extractvalue { ptr, ptr } %22, 0
  store ptr %24, ptr %23, align 8
  %25 = getelementptr inbounds nuw { ptr, ptr }, ptr %17, i32 0, i32 1
  %26 = extractvalue { ptr, ptr } %22, 1
  store ptr %26, ptr %25, align 8
  br label %27

27:                                               ; preds = %7
  %28 = load ptr, ptr %12, align 8, !tbaa !10
  %29 = icmp ne ptr %28, null
  br i1 %29, label %30, label %54

30:                                               ; preds = %27
  %31 = load ptr, ptr %13, align 8, !tbaa !11
  %32 = icmp ne ptr %31, null
  br i1 %32, label %33, label %54

33:                                               ; preds = %30
  %34 = load ptr, ptr %13, align 8, !tbaa !11
  %35 = load i64, ptr %34, align 8, !tbaa !13
  %36 = icmp ne i64 %35, 16
  br i1 %36, label %37, label %52

37:                                               ; preds = %33
  call void @llvm.lifetime.start.p0(i64 8, ptr %18) #13
  %38 = load ptr, ptr %13, align 8, !tbaa !11
  %39 = load i64, ptr %38, align 8, !tbaa !13
  %40 = icmp ule i64 16, %39
  br i1 %40, label %41, label %42

41:                                               ; preds = %37
  br label %45

42:                                               ; preds = %37
  %43 = load ptr, ptr %13, align 8, !tbaa !11
  %44 = load i64, ptr %43, align 8, !tbaa !13
  br label %45

45:                                               ; preds = %42, %41
  %46 = phi i64 [ 16, %41 ], [ %44, %42 ]
  store i64 %46, ptr %18, align 8, !tbaa !13
  %47 = load ptr, ptr %12, align 8, !tbaa !10
  %48 = load i64, ptr %18, align 8, !tbaa !13
  call void @llvm.memcpy.p0.p0.i64(ptr align 1 %47, ptr align 1 %17, i64 %48, i1 false)
  %49 = load i64, ptr %18, align 8, !tbaa !13
  %50 = load ptr, ptr %13, align 8, !tbaa !11
  store i64 %49, ptr %50, align 8, !tbaa !13
  store i32 22, ptr %16, align 4, !tbaa !19
  store i32 4, ptr %19, align 4
  call void @llvm.lifetime.end.p0(i64 8, ptr %18) #13
  %51 = load i32, ptr %19, align 4
  switch i32 %51, label %83 [
    i32 4, label %81
  ]

52:                                               ; preds = %33
  %53 = load ptr, ptr %12, align 8, !tbaa !10
  call void @llvm.memcpy.p0.p0.i64(ptr align 8 %53, ptr align 8 %17, i64 16, i1 false), !tbaa.struct !329
  br label %54

54:                                               ; preds = %52, %30, %27
  br label %55

55:                                               ; preds = %54
  br label %56

56:                                               ; preds = %55
  %57 = load ptr, ptr %14, align 8, !tbaa !10
  %58 = icmp ne ptr %57, null
  br i1 %58, label %59, label %80

59:                                               ; preds = %56
  call void @llvm.lifetime.start.p0(i64 16, ptr %20) #13
  call void @llvm.memset.p0.i64(ptr align 8 %20, i8 0, i64 16, i1 false)
  br label %60

60:                                               ; preds = %59
  %61 = load ptr, ptr %14, align 8, !tbaa !10
  %62 = icmp ne ptr %61, null
  br i1 %62, label %63, label %69

63:                                               ; preds = %60
  %64 = load i64, ptr %15, align 8, !tbaa !13
  %65 = icmp ne i64 %64, 16
  br i1 %65, label %66, label %67

66:                                               ; preds = %63
  store i32 22, ptr %16, align 4, !tbaa !19
  store i32 4, ptr %19, align 4
  br label %77

67:                                               ; preds = %63
  %68 = load ptr, ptr %14, align 8, !tbaa !10
  call void @llvm.memcpy.p0.p0.i64(ptr align 8 %20, ptr align 8 %68, i64 16, i1 false), !tbaa.struct !329
  br label %69

69:                                               ; preds = %67, %60
  br label %70

70:                                               ; preds = %69
  br label %71

71:                                               ; preds = %70
  %72 = load ptr, ptr %9, align 8, !tbaa !3
  %73 = getelementptr inbounds nuw { ptr, ptr }, ptr %20, i32 0, i32 0
  %74 = load ptr, ptr %73, align 8
  %75 = getelementptr inbounds nuw { ptr, ptr }, ptr %20, i32 0, i32 1
  %76 = load ptr, ptr %75, align 8
  call void @tsd_activity_callback_thunk_set(ptr noundef %72, ptr %74, ptr %76)
  store i32 0, ptr %19, align 4
  br label %77

77:                                               ; preds = %66, %71
  call void @llvm.lifetime.end.p0(i64 16, ptr %20) #13
  %78 = load i32, ptr %19, align 4
  switch i32 %78, label %83 [
    i32 0, label %79
    i32 4, label %81
  ]

79:                                               ; preds = %77
  br label %80

80:                                               ; preds = %79, %56
  store i32 0, ptr %16, align 4, !tbaa !19
  br label %81

81:                                               ; preds = %80, %77, %45
  %82 = load i32, ptr %16, align 4, !tbaa !19
  store i32 %82, ptr %8, align 4
  store i32 1, ptr %19, align 4
  br label %83

83:                                               ; preds = %81, %45, %77
  call void @llvm.lifetime.end.p0(i64 16, ptr %17) #13
  call void @llvm.lifetime.end.p0(i64 4, ptr %16) #13
  %84 = load i32, ptr %8, align 4
  ret i32 %84
}