; Function Attrs: mustprogress nofree norecurse nosync nounwind willreturn memory(argmem: readwrite) uwtable
define internal range(i32 0, 23) i32 @experimental_thread_activity_callback_ctl(ptr noundef captures(none) %0, ptr readnone captures(none) %1, i64 %2, ptr noundef writeonly captures(address_is_null) %3, ptr noundef captures(address_is_null) %4, ptr noundef readonly captures(address_is_null) %5, i64 noundef %6) #10 {
  %8 = alloca %struct.activity_callback_thunk_s, align 8
  call void @llvm.lifetime.start.p0(i64 16, ptr nonnull %8)
  %9 = getelementptr inbounds nuw i8, ptr %0, i64 240
  %.sroa.0.0.copyload.i = load ptr, ptr %9, align 8, !tbaa !213
  %.sroa.2.0..sroa_idx.i = getelementptr inbounds nuw i8, ptr %0, i64 248
  %.sroa.2.0.copyload.i = load ptr, ptr %.sroa.2.0..sroa_idx.i, align 8, !tbaa !213
  store ptr %.sroa.0.0.copyload.i, ptr %8, align 8
  %.8..8..8..8..sroa_idx = getelementptr inbounds nuw i8, ptr %8, i64 8
  store ptr %.sroa.2.0.copyload.i, ptr %.8..8..8..8..sroa_idx, align 8
  %10 = icmp ne ptr %3, null
  %11 = icmp ne ptr %4, null
  %or.cond = and i1 %10, %11
  br i1 %or.cond, label %12, label %16

12:                                               ; preds = %7
  %13 = load i64, ptr %4, align 8, !tbaa !3
  %.not = icmp eq i64 %13, 16
  br i1 %.not, label %15, label %14

14:                                               ; preds = %12
  %spec.select = tail call i64 @llvm.umin.i64(i64 %13, i64 16)
  call void @llvm.memcpy.p0.p0.i64(ptr nonnull align 1 %3, ptr nonnull align 8 %8, i64 %spec.select, i1 false)
  store i64 %spec.select, ptr %4, align 8, !tbaa !3
  br label %18

15:                                               ; preds = %12
  call void @llvm.memcpy.p0.p0.i64(ptr noundef nonnull align 8 dereferenceable(16) %3, ptr noundef nonnull align 8 dereferenceable(16) %8, i64 16, i1 false), !tbaa.struct !263
  br label %16

16:                                               ; preds = %15, %7
  %.not26 = icmp eq ptr %5, null
  br i1 %.not26, label %18, label %17

17:                                               ; preds = %16
  %.not27 = icmp eq i64 %6, 16
  br i1 %.not27, label %.thread, label %18

.thread:                                          ; preds = %17
  %.sroa.5.0..sroa_idx = getelementptr inbounds nuw i8, ptr %5, i64 8
  %.sroa.5.0.copyload = load ptr, ptr %.sroa.5.0..sroa_idx, align 8, !tbaa !213
  %.sroa.0.0.copyload = load ptr, ptr %5, align 8, !tbaa !213
  store ptr %.sroa.0.0.copyload, ptr %9, align 8, !tbaa !213
  store ptr %.sroa.5.0.copyload, ptr %.sroa.2.0..sroa_idx.i, align 8, !tbaa !213
  br label %18

18:                                               ; preds = %16, %.thread, %17, %14
  %.021 = phi i32 [ 22, %14 ], [ 22, %17 ], [ 0, %.thread ], [ 0, %16 ]
  call void @llvm.lifetime.end.p0(i64 16, ptr nonnull %8)
  ret i32 %.021
}